; Function Attrs: mustprogress null_pointer_is_valid sspstrong uwtable
define noundef zeroext i1 @_ZN22ExportDissectionDialog11eventFilterEP7QObjectP6QEvent(ptr noundef align 8 dereferenceable_or_null(472) %0, ptr noundef %1, ptr noundef %2) unnamed_addr #4 align 2 {
  %4 = getelementptr inbounds nuw i8, ptr %2, i64 8
  %5 = load i16, ptr %4, align 8
  %6 = icmp eq i16 %5, 98
  br i1 %6, label %7, label %.thread

7:                                                ; preds = %3
  %8 = tail call noundef ptr @_ZNK11QMetaObject4castEPK7QObject(ptr noundef nonnull align 8 dereferenceable_or_null(56) @_ZN11QPushButton16staticMetaObjectE, ptr noundef %1)
  %.not = icmp eq ptr %8, null
  br i1 %.not, label %.thread, label %9

9:                                                ; preds = %7
  %10 = getelementptr inbounds nuw i8, ptr %0, i64 464
  %11 = load ptr, ptr %10, align 8
  %12 = icmp eq ptr %8, %11
  br i1 %12, label %13, label %.thread

13:                                               ; preds = %9
  %14 = getelementptr inbounds nuw i8, ptr %8, i64 32
  %15 = load ptr, ptr %14, align 8
  %16 = getelementptr inbounds nuw i8, ptr %15, i64 8
  %17 = load i32, ptr %16, align 8
  %18 = and i32 %17, 1
  %.not.i = icmp eq i32 %18, 0
  br i1 %.not.i, label %19, label %.thread

19:                                               ; preds = %13
  %20 = getelementptr inbounds nuw i8, ptr %0, i64 352
  %21 = tail call noundef zeroext i1 @_ZN19PacketRangeGroupBox7isValidEv(ptr noundef nonnull align 8 dereferenceable_or_null(60) %20)
  %22 = getelementptr inbounds nuw i8, ptr %0, i64 40
  %23 = load i32, ptr %22, align 8
  %24 = icmp eq i32 %23, 1
  br i1 %24, label %25, label %_ZN22ExportDissectionDialog7isValidEv.exit

25:                                               ; preds = %19
  %26 = getelementptr inbounds nuw i8, ptr %0, i64 416
  %27 = tail call noundef zeroext i1 @_ZN20PacketFormatGroupBox14summaryEnabledEv(ptr noundef nonnull align 8 dereferenceable_or_null(48) %26)
  br i1 %27, label %_ZN22ExportDissectionDialog7isValidEv.exit, label %28

28:                                               ; preds = %25
  %29 = tail call noundef zeroext i1 @_ZN20PacketFormatGroupBox14detailsEnabledEv(ptr noundef nonnull align 8 dereferenceable_or_null(48) %26)
  br i1 %29, label %_ZN22ExportDissectionDialog7isValidEv.exit, label %30

30:                                               ; preds = %28
  %31 = tail call noundef zeroext i1 @_ZN20PacketFormatGroupBox12bytesEnabledEv(ptr noundef nonnull align 8 dereferenceable_or_null(48) %26)
  %32 = and i1 %21, %31
  br i1 %32, label %.thread, label %33

_ZN22ExportDissectionDialog7isValidEv.exit:       ; preds = %19, %25, %28
  br i1 %21, label %.thread, label %33

33:                                               ; preds = %_ZN22ExportDissectionDialog7isValidEv.exit, %30
  tail call void @_ZN7QWidget10setEnabledEb(ptr noundef nonnull align 8 dereferenceable_or_null(40) %8, i1 noundef zeroext false)
  br label %35

.thread:                                          ; preds = %30, %7, %9, %_ZN22ExportDissectionDialog7isValidEv.exit, %13, %3
  %34 = tail call noundef zeroext i1 @_ZN7QObject11eventFilterEPS_P6QEvent(ptr noundef align 8 dereferenceable_or_null(16) %0, ptr noundef %1, ptr noundef %2)
  br label %35

35:                                               ; preds = %33, %.thread
  %.1 = phi i1 [ true, %33 ], [ %34, %.thread ]
  ret i1 %.1
}